; Function Attrs: mustprogress uwtable
define void @_ZN6casadi2MX7reshapeERKS0_xx(ptr dead_on_unwind noalias writable sret(%"class.casadi::MX") align 8 %0, ptr noundef nonnull align 8 dereferenceable(8) %1, i64 noundef %2, i64 noundef %3) local_unnamed_addr #3 align 2 personality ptr @__gxx_personality_v0 {
  %5 = alloca %"class.casadi::Sparsity", align 8
  %6 = tail call noundef ptr @_ZNK6casadi12SharedObjectptEv(ptr noundef nonnull align 8 dereferenceable(8) %1)
  %7 = getelementptr inbounds i8, ptr %6, i64 56
  %8 = tail call noundef i64 @_ZNK6casadi8Sparsity5size1Ev(ptr noundef nonnull align 8 dereferenceable(8) %7)
  %9 = icmp eq i64 %8, %2
  br i1 %9, label %10, label %16

10:                                               ; preds = %4
  %11 = tail call noundef ptr @_ZNK6casadi12SharedObjectptEv(ptr noundef nonnull align 8 dereferenceable(8) %1)
  %12 = getelementptr inbounds i8, ptr %11, i64 56
  %13 = tail call noundef i64 @_ZNK6casadi8Sparsity5size2Ev(ptr noundef nonnull align 8 dereferenceable(8) %12)
  %14 = icmp eq i64 %13, %3
  br i1 %14, label %15, label %16

15:                                               ; preds = %10
  tail call void @_ZN6casadi12SharedObjectC2ERKS0_(ptr noundef nonnull align 8 dereferenceable(8) %0, ptr noundef nonnull align 8 dereferenceable(8) %1)
  br label %22

16:                                               ; preds = %10, %4
  %17 = tail call noundef ptr @_ZNK6casadi12SharedObjectptEv(ptr noundef nonnull align 8 dereferenceable(8) %1)
  %18 = getelementptr inbounds i8, ptr %17, i64 56
  call void @_ZN6casadi8Sparsity7reshapeERKS0_xx(ptr dead_on_unwind nonnull writable sret(%"class.casadi::Sparsity") align 8 %5, ptr noundef nonnull align 8 dereferenceable(8) %18, i64 noundef %2, i64 noundef %3)
  invoke void @_ZN6casadi2MX7reshapeERKS0_RKNS_8SparsityE(ptr dead_on_unwind writable sret(%"class.casadi::MX") align 8 %0, ptr noundef nonnull align 8 dereferenceable(8) %1, ptr noundef nonnull align 8 dereferenceable(8) %5)
          to label %19 unwind label %20

19:                                               ; preds = %16
  call void @_ZN6casadi12SharedObjectD2Ev(ptr noundef nonnull align 8 dereferenceable(8) %5) #27
  br label %22

20:                                               ; preds = %16
  %21 = landingpad { ptr, i32 }
          cleanup
  call void @_ZN6casadi12SharedObjectD2Ev(ptr noundef nonnull align 8 dereferenceable(8) %5) #27
  resume { ptr, i32 } %21

22:                                               ; preds = %19, %15
  ret void
}